(lp0
S'http://en.wikipedia.org/wiki/Data_science'
p1
aS'http://datascience.berkeley.edu/about/what-is-data-science/'
p2
aS'http://www.quora.com/What-is-data-science'
p3
aS'http://www.ibm.com/software/data/infosphere/data-scientist/'
p4
aS'http://datascience.nyu.edu/what-is-data-science/'
p5
aS'http://radar.oreilly.com/2010/06/what-is-data-science.html'
p6
aS'https://datajobs.com/what-is-data-science'
p7
aS'http://www.datascientists.net/what-is-data-science'
p8
aS'http://www.forbes.com/sites/gilpress/2013/05/28/a-very-short-history-of-data-science/'
p9
aS'http://searchbusinessanalytics.techtarget.com/definition/Data-scientist'
p10
aS'http://searchcio.techtarget.com/definition/data-science'
p11
aS'http://www.amazon.com/What-Data-Science-Mike-Loukides-ebook/dp/B007R8BHAK'
p12
aS'https://www.safaribooksonline.com/library/view/doing-data-science/9781449363871/ch01.html'
p13
aS'http://datascopeanalytics.com/what-we-think/2014/08/04/how-do-i-become-a-data-scientist-an-evaluation-of-3-alternatives'
p14
aS'http://www.cloudera.com/content/cloudera/en/developers/home/developer-admin-resources/new-to-data-science.html'
p15
aS'https://hbr.org/2012/10/data-scientist-the-sexiest-job-of-the-21st-century/'
p16
aS'https://www.udacity.com/course/intro-to-data-science--ud359'
p17
a.