(lp0
S'http://www.aspph.org/discover/'
p1
aS'http://www.cdcfoundation.org/content/what-public-health'
p2
aS'https://www.apha.org/what-is-public-health'
p3
aS'http://www.who.int/trade/glossary/story076/en/'
p4
aS'http://www.jhsph.edu/about/what-is-public-health/'
p5
aS'http://sph.washington.edu/prospective/publichealth.asp'
p6
aS'http://en.wikipedia.org/wiki/Public_health'
p7
aS'http://health.usf.edu/publichealth/definition.html'
p8
aS'http://www.publichealth.org/'
p9
aS'http://www.lib.berkeley.edu/PUBL/whatisph.html'
p10
aS'http://sph.berkeley.edu/undergraduate-major/about-major'
p11
aS'http://explorehealthcareers.org/en/Field/11/Public_Health'
p12
aS'http://explorehealthcareers.org/en/Career/149/Public_Health_Nurse'
p13
aS'http://www.thisispublichealth.org/'
p14
aS'http://www.hhs.gov/ash/initiatives/quality/finance/index.html'
p15
aS'https://www.youtube.com/user/ThisIsPublicHealth'
p16
aS'http://www.cdc.gov/nceh/ehs/ephli/core_ess.htm'
p17
aS'http://www.hrsa.gov/publichealth/'
p18
aS'http://www.ohsu.edu/public-health/'
p19
aS'http://www.publichealthonline.org/careers/'
p20
aS'https://bigfuture.collegeboard.org/majors/health-professions-related-clinical-sciences-public-health-public-health'
p21
aS'http://www.jblearning.com/samples/0763738425/38425_CH01_001_034.pdf'
p22
aS'http://www.mclph.umn.edu/watersedge/'
p23
aS'https://www.health.ny.gov/prevention/public_health_works/careers/public_health_physicians.htm'
p24
aS'http://www.phdsc.org/'
p25
aS'http://dictionary.reference.com/browse/public%2Bhealth'
p26
aS'http://www.hsph.harvard.edu/about/public-health-medicine/'
p27
aS'http://www.journals.elsevier.com/public-health/'
p28
aS'http://www.aphl.org/AboutAPHL/aboutphls/Pages/default.aspx'
p29
aS'http://www.sciencedirect.com/science/journal/00333506'
p30
aS'https://publichealth.arizona.edu/about/what-public-health'
p31
aS'http://www.health.state.mn.us/pathways/description.html'
p32
aS'http://www.naccho.org/topics/infrastructure/'
p33
aS'http://www.kingcounty.gov/healthservices/health.aspx'
p34
a.