(lp0
S'http://en.wikipedia.org/wiki/Data_science'
p1
aS'http://datascience.berkeley.edu/about/what-is-data-science/'
p2
aS'http://www.quora.com/What-is-data-science'
p3
aS'http://www.ibm.com/software/data/infosphere/data-scientist/'
p4
aS'http://radar.oreilly.com/2010/06/what-is-data-science.html'
p5
aS'http://datascience.nyu.edu/what-is-data-science/'
p6
aS'http://www.datascientists.net/what-is-data-science'
p7
aS'https://datajobs.com/what-is-data-science'
p8
aS'http://www.forbes.com/sites/gilpress/2013/05/28/a-very-short-history-of-data-science/'
p9
aS'http://searchbusinessanalytics.techtarget.com/definition/Data-scientist'
p10
a.