(lp0
S'http://www.imdb.com/title/tt1175491/'
p1
aS'http://www.wmagazine.com/'
p2
aS'http://www.starwoodhotels.com/whotels/index.html%3Flanguage%3Den_US'
p3
aS'http://en.wikipedia.org/wiki/W._(film)'
p4
aS'http://www.wthefilm.com/'
p5
aS'http://www.wsouthbeach.com/'
p6
aS'http://www.thedailybeast.com/articles/2015/05/12/dr-kanye-west-mocks-george-w-bush-bush-center-giggles.html'
p7
aS'http://www.amazon.com/W-Josh-Brolin/dp/B001MVWFAO'
p8
aS'http://www.wistanbul.com.tr/'
p9
a.