(lp0
S'http://en.wikipedia.org/wiki/Data_science'
p1
aS'http://datascience.berkeley.edu/about/what-is-data-science/'
p2
aS'http://www.quora.com/What-is-data-science'
p3
aS'http://www.ibm.com/software/data/infosphere/data-scientist/'
p4
aS'http://datascience.nyu.edu/what-is-data-science/'
p5
aS'http://radar.oreilly.com/2010/06/what-is-data-science.html'
p6
aS'https://datajobs.com/what-is-data-science'
p7
aS'http://www.datascientists.net/what-is-data-science'
p8
aS'http://www.forbes.com/sites/gilpress/2013/05/28/a-very-short-history-of-data-science/'
p9
aS'http://searchbusinessanalytics.techtarget.com/definition/Data-scientist'
p10
aS'http://searchcio.techtarget.com/definition/data-science'
p11
aS'http://www.amazon.com/What-Data-Science-Mike-Loukides-ebook/dp/B007R8BHAK'
p12
aS'http://datascopeanalytics.com/what-we-think/2014/08/04/how-do-i-become-a-data-scientist-an-evaluation-of-3-alternatives'
p13
aS'https://www.safaribooksonline.com/library/view/doing-data-science/9781449363871/ch01.html'
p14
aS'http://www.cloudera.com/content/cloudera/en/developers/home/developer-admin-resources/new-to-data-science.html'
p15
aS'https://hbr.org/2012/10/data-scientist-the-sexiest-job-of-the-21st-century/'
p16
aS'https://www.kaggle.com/wiki/WhatIsDataScience'
p17
aS'https://www.kaggle.com/wiki/WhatIsDataScience'
p18
aS'http://www.mastersindatascience.org/industry/'
p19
aS'http://blogs.wsj.com/cio/2014/05/02/why-do-we-need-data-science-when-weve-had-statistics-for-centuries/'
p20
aS'http://www.boozallen.com/insights/2013/11/data-science-field-guide'
p21
aS'http://datascience.com/'
p22
aS'http://www.edureka.co/data-science'
p23
aS'https://generalassemb.ly/education/what-is-data-science'
p24
aS'http://mashable.com/2014/12/25/data-scientist/'
p25
aS'http://www.i-programmer.info/professional-programmer/accreditation/8331-what-is-a-data-scientist-and-how-do-i-become-one.html'
p26
aS'http://blogs.adobe.com/digitalmarketing/analytics/data-science-service/'
p27
aS'http://dsi.virginia.edu/'
p28
aS'http://datascience.inf.ed.ac.uk/what-is-data-science/'
p29
aS'https://www.linkedin.com/pulse/20131216094029-2143418-just-what-is-a-data-scientist-anyway'
p30
aS'http://insightdatascience.com/Insight_White_Paper.pdf'
p31
aS'http://www.trovedata.com/solutions/what-is-predictive-data-science/'
p32
aS'http://lifehacker.com/career-spotlight-what-i-do-as-a-data-scientist-1684793405'
p33
aS'http://www.bgsu.edu/arts-and-sciences/mathematics-and-statistics/comast1.html'
p34
aS'http://www.huffingtonpost.com/shelly-palmer/data-science-101---defini_b_5784508.html'
p35
aS'http://datascience.smu.edu/admissions/overview/'
p36
aS'http://ds.cs.umass.edu/'
p37
aS'https://www.whitehouse.gov/blog/2015/02/19/memo-us-chief-data-scientist-dr-dj-patil-unleashing-power-data-serve-american-people'
p38
aS'http://analytics.uncc.edu/'
p39
aS'https://datahackathon2015.splashthat.com/'
p40
aS'http://www.datasciencecentral.com/profiles/blogs/data-science-2-0'
p41
aS'http://www.theguardian.com/news/datablog/2012/mar/02/data-scientist'
p42
aS'http://spectrum.ieee.org/podcast/at-work/tech-careers/is-data-science-your-next-career'
p43
aS'http://www.galvanize.com/2015/02/17/how-to-nail-a-data-science-interview/'
p44
aS'http://datascience.la/'
p45
aS'http://www3.imperial.ac.uk/data-science'
p46
aS'http://www2.warwick.ac.uk/fac/sci/statistics/courses/datsci/'
p47
aS'https://github.com/okulbilisim/awesome-datascience'
p48
aS'http://blog.alexa.com/know-data-science-important/'
p49
aS'http://www.information-management.com/blogs/what-is-data-science-again-10026075-1.html'
p50
aS'http://en.wikibooks.org/wiki/Data_Science:_An_Introduction/A_History_of_Data_Science'
p51
aS'http://www.emc.com/collateral/about/news/emc-data-science-study-wp.pdf'
p52
aS'http://datascienceretreat.com/'
p53
aS'http://www.simafore.com/blog/what-is-data-science-no-really'
p54
aS'http://science.iit.edu/programs/graduate/master-data-science'
p55
aS'http://datasciencetoolbox.org/'
p56
aS'http://readwrite.com/2015/01/08/open-source-big-data-science-python'
p57
aS'http://www.techopedia.com/definition/28177/data-scientist'
p58
aS'http://www.slideshare.net/ryanorban/how-to-become-a-data-scientist'
p59
aS'http://www.dataists.com/2010/09/a-taxonomy-of-data-science/'
p60
aS'https://www.stat.wisc.edu/ms-degree-data-science-option-ms-ds'
p61
aS'http://www.computerworld.com/article/2899647/the-data-science-ecosystem.html'
p62
aS'http://www.securitydatascience.org/'
p63
aS'http://www.pce.uw.edu/certificates/data-science.html'
p64
aS'http://www.meetup.com/DataScience-SG-Singapore/'
p65
aS'http://www.theatlantic.com/technology/archive/2014/07/data-science-what-the-facebook-controversy-is-really-about/373770/'
p66
aS'http://datascience.columbia.edu/certification'
p67
aS'http://datascience.stackexchange.com/'
p68
aS'http://teamtreehouse.com/library/data-science-basics'
p69
aS'http://www.stthomas.edu/gradsoftware/programs/masters/msdatascience/'
p70
aS'https://exploredatascience.com/'
p71
aS'http://www.sas.com/en_us/insights/analytics/what-is-a-data-scientist.html'
p72
aS'http://www.cmu.edu/graduate/data-science/'
p73
aS'https://gradanalytics.georgetown.edu/home/whatisDS'
p74
aS'http://www.datascienceweekly.org/data-science-resources/data-science-newsletter-most-read-articles'
p75
aS'http://cs109.github.io/2014/'
p76
aS'http://www.thisismetis.com/data-science'
p77
aS'https://www.datasciencetech.institute/how-to-become-a-data-scientist/'
p78
aS'http://2u.com/about/partners/berkeley/'
p79
aS'http://www.revolutionanalytics.com/data-science'
p80
aS'http://www.barcelonagse.eu/master-data-science.html'
p81
aS'http://data-informed.com/understanding-data-science-service/'
p82
aS'http://www.cs.usc.edu/academics/masters/msdata.htm'
p83
aS'http://berkeleysciencereview.com/article/first-rule-data-science/'
p84
aS'http://firstround.com/review/What-I-Learned-As-Pandoras-First-Data-Scientist/'
p85
aS'https://www.class-central.com/mooc/1480/udacity-intro-to-data-science'
p86
aS'http://www.datasciencebowl.com/blog'
p87
aS'https://community.lithium.com/t5/Science-of-Social-blog/What-is-a-Data-Scientist-and-Where-is-Data-Science-Heading-Part/ba-p/193151'
p88
a.