(lp0
S'http://www.datasciencecentral.com/profiles/blogs/10-modern-statistical-concepts-discovered-by-data-scientists'
p1
aS'http://en.wikipedia.org/wiki/Data_science'
p2
aS'http://datascience.berkeley.edu/about/what-is-data-science/'
p3
aS'http://dataconomy.com/top-10-data-science-skills-and-how-to-learn-them/'
p4
aS'http://www.quora.com/What-is-the-Data-Science-topic-FAQ'
p5
aS'https://hbr.org/2012/10/data-scientist-the-sexiest-job-of-the-21st-century/'
p6
aS'https://www.infer.com/top-10-data-science-though-leaders-influencing-predictive-scoring/'
p7
aS'http://www.datascienceweekly.org/data-science-resources/data-science-newsletter-most-read-articles'
p8
a.