(lp0
S'http://www.foodnetwork.com/'
p1
aS'http://www.food.com/'
p2
aS'http://en.wikipedia.org/wiki/Food'
p3
aS'https://www.yahoo.com/food'
p4
aS'https://www.reddit.com/r/food/'
p5
aS'http://www.fda.gov/Food/'
p6
aS'http://www.huffingtonpost.com/taste/'
p7
aS'http://www.wholefoodsmarket.com/'
p8
aS'https://www.pinterest.com/categories/food_drink/'
p9
aS'http://www.buzzfeed.com/food'
p10
aS'https://evernote.com/food/'
p11
aS'http://www.food-la.com/'
p12
aS'http://www.naturalnews.com/food.html'
p13
aS'http://www.naturalnews.com/foods.html'
p14
aS'http://www.npr.org/sections/food/'
p15
aS'http://www.sciencedirect.com/science/journal/03088146'
p16
aS'http://food52.com/'
p17
aS'http://www.foodtimeline.org/'
p18
aS'http://www.yelp.com/biz/food-los-angeles-2'
p19
aS'http://www.popsugar.com/food'
p20
aS'http://www.foodday.org/'
p21
aS'http://www.foodsafety.gov/'
p22
aS'https://www.foodlion.com/'
p23
aS'https://www.foodlion.com/weekly-specials/'
p24
aS'http://www.foodallergy.org/'
p25
aS'https://www.foodsco.net/'
p26
aS'http://www.journals.elsevier.com/food-chemistry/'
p27
aS'http://www.mdpi.com/journal/foods'
p28
aS'http://mashable.com/category/food/'
p29
aS'http://www.sfgate.com/food/'
p30
aS'https://twitter.com/hashtag/food'
p31
aS'http://www.wfp.org/'
p32
aS'http://en.wiktionary.org/wiki/food'
p33
aS'http://9gag.com/food'
p34
aS'http://foodgawker.com/'
p35
aS'http://www.philly.com/philly/food'
p36
aS'http://www.foodandwine.com/'
p37
a.