(lp0
S'http://en.wikipedia.org/wiki/Data_science'
p1
aS'http://datascience.berkeley.edu/about/what-is-data-science/'
p2
aS'http://www.quora.com/What-is-data-science'
p3
aS'http://datascience.nyu.edu/what-is-data-science/'
p4
aS'http://www.ibm.com/software/data/infosphere/data-scientist/'
p5
aS'http://radar.oreilly.com/2010/06/what-is-data-science.html'
p6
aS'http://www.datascientists.net/what-is-data-science'
p7
aS'http://www.forbes.com/sites/gilpress/2013/05/28/a-very-short-history-of-data-science/'
p8
aS'https://datajobs.com/what-is-data-science'
p9
aS'http://searchcio.techtarget.com/definition/data-science'
p10
aS'http://searchbusinessanalytics.techtarget.com/definition/Data-scientist'
p11
aS'http://www.amazon.com/What-Data-Science-Mike-Loukides-ebook/dp/B007R8BHAK'
p12
aS'https://www.safaribooksonline.com/library/view/doing-data-science/9781449363871/ch01.html'
p13
aS'http://datascopeanalytics.com/what-we-think/2014/08/04/how-do-i-become-a-data-scientist-an-evaluation-of-3-alternatives'
p14
aS'https://hbr.org/2012/10/data-scientist-the-sexiest-job-of-the-21st-century/'
p15
aS'https://www.udacity.com/course/intro-to-data-science--ud359'
p16
aS'https://www.kaggle.com/wiki/WhatIsDataScience'
p17
aS'http://www.cloudera.com/content/cloudera/en/developers/home/developer-admin-resources/new-to-data-science.html'
p18
aS'http://blogs.wsj.com/cio/2014/05/02/why-do-we-need-data-science-when-weve-had-statistics-for-centuries/'
p19
aS'http://www.rochester.edu/data-science/'
p20
aS'http://dsi.virginia.edu/academics'
p21
aS'http://www.boozallen.com/insights/2013/11/data-science-field-guide'
p22
aS'http://mashable.com/2014/12/25/data-scientist/'
p23
aS'http://datascience.com/'
p24
aS'http://www.huffingtonpost.com/shelly-palmer/data-science-101---defini_b_5784508.html'
p25
aS'http://www.huffingtonpost.com/shelly-palmer/data-science-101---defini_b_5784508.html'
p26
aS'https://generalassemb.ly/education/what-is-data-science'
p27
aS'http://cs109.github.io/2014/'
p28
aS'http://www.extension.harvard.edu/courses/data-science'
p29
aS'https://www.linkedin.com/pulse/20131216094029-2143418-just-what-is-a-data-scientist-anyway'
p30
aS'http://www.information-management.com/blogs/what-is-data-science-again-10026075-1.html'
p31
aS'http://www.edureka.co/data-science'
p32
aS'http://blogs.adobe.com/digitalmarketing/analytics/data-science-service/'
p33
aS'http://insightdatascience.com/Insight_White_Paper.pdf'
p34
aS'http://en.wikibooks.org/wiki/Data_Science:_An_Introduction'
p35
aS'http://spectrum.ieee.org/podcast/at-work/tech-careers/is-data-science-your-next-career'
p36
aS'http://www.dataists.com/2010/09/a-taxonomy-of-data-science/'
p37
aS'http://datascience.inf.ed.ac.uk/what-is-data-science/'
p38
aS'https://github.com/okulbilisim/awesome-datascience'
p39
aS'http://www.datasciencecentral.com/profiles/blogs/data-science-without-statistics-is-possible-even-desirable'
p40
aS'http://www.cnbc.com/id/101618128'
p41
aS'http://www.slideshare.net/ryanorban/how-to-become-a-data-scientist'
p42
aS'http://informatics.nku.edu/departments/computer-science/programs/datascience.html'
p43
aS'http://news.dice.com/2014/03/05/data-science-is-dead/'
p44
aS'http://www.bgsu.edu/arts-and-sciences/mathematics-and-statistics/comast1.html'
p45
aS'http://insightdataengineering.com/blog/Data_Science_vs_Data_Engineering.html'
p46
aS'http://lifehacker.com/career-spotlight-what-i-do-as-a-data-scientist-1684793405'
p47
aS'http://www3.imperial.ac.uk/data-science'
p48
aS'http://analytics.uncc.edu/'
p49
aS'http://cacm.acm.org/magazines/2013/12/169933-data-science-and-prediction/fulltext'
p50
aS'http://www2.warwick.ac.uk/fac/sci/statistics/courses/datsci/'
p51
aS'http://www.techopedia.com/definition/28177/data-scientist'
p52
aS'http://datascienceretreat.com/'
p53
aS'http://www.trovedata.com/solutions/what-is-predictive-data-science/'
p54
aS'http://www.galvanize.com/2015/02/17/how-to-nail-a-data-science-interview/'
p55
aS'http://www.mastersindatascience.org/industry/'
p56
aS'http://www.moore.org/programs/science/data-driven-discovery'
p57
aS'http://insideanalysis.com/2013/08/a-data-science-rant/'
p58
aS'https://datahackathon2015.splashthat.com/'
p59
aS'http://readwrite.com/2014/07/21/data-scientist-income-skills-jobs'
p60
aS'http://www.emc.com/collateral/about/news/emc-data-science-study-wp.pdf'
p61
aS'http://www.meetup.com/DataScience-SG-Singapore/'
p62
aS'http://www.theatlantic.com/technology/archive/2014/07/data-science-what-the-facebook-controversy-is-really-about/373770/'
p63
aS'http://datascience.la/'
p64
aS'http://www.simafore.com/blog/what-is-data-science-no-really'
p65
aS'https://www.cia.gov/careers/opportunities/science-technology/data-scientist.html'
p66
aS'http://science.iit.edu/programs/graduate/master-data-science'
p67
aS'https://ischool.syr.edu/media/documents/2012/3/DataScienceBook1_1.pdf'
p68
aS'http://www.i-programmer.info/news/150-training-a-education/8451-april-moocs.html'
p69
aS'http://datasciencetoolbox.org/'
p70
aS'http://berkeleysciencereview.com/article/first-rule-data-science/'
p71
aS'http://datascience.smu.edu/admissions/overview/'
p72
aS'http://datascience.smu.edu/admissions/overview/'
p73
aS'http://blog.framed.io/what-is-data-science-data-pyramid/'
p74
aS'http://www.datascienceweekly.org/data-science-resources/data-science-newsletter-most-read-articles'
p75
aS'http://ds.cs.umass.edu/'
p76
aS'https://exploredatascience.com/'
p77
aS'http://drewconway.com/zia/2013/3/26/the-data-science-venn-diagram'
p78
aS'https://www.stat.wisc.edu/ms-degree-data-science-option-ms-ds'
p79
aS'http://www.wpi.edu/academics/datascience/degree-requirements.html'
p80
aS'http://www.r-bloggers.com/software-engineers-guide-to-getting-started-with-data-science/'
p81
aS'https://www.usfca.edu/artsci/bsds/'
p82
aS'http://hortonworks.com/blog/hortonworks-hadoop-data-science/'
p83
aS'http://datascience.stackexchange.com/'
p84
aS'http://2u.com/about/partners/berkeley/'
p85
aS'http://midas.umich.edu/'
p86
aS'https://www.whitehouse.gov/blog/2015/02/19/memo-us-chief-data-scientist-dr-dj-patil-unleashing-power-data-serve-american-people'
p87
aS'https://www.class-central.com/mooc/1480/udacity-intro-to-data-science'
p88
aS'http://www.dataplusscience.com/DataScientist.html'
p89
aS'http://www.epjdatascience.com/'
p90
aS'http://www.barcelonagse.eu/master-data-science.html'
p91
a.