(lp0
S'http://www.aspph.org/discover/'
p1
aS'http://www.cdcfoundation.org/content/what-public-health'
p2
aS'https://www.apha.org/what-is-public-health'
p3
aS'http://www.who.int/trade/glossary/story076/en/'
p4
aS'http://www.jhsph.edu/about/what-is-public-health/'
p5
aS'http://sph.washington.edu/prospective/publichealth.asp'
p6
aS'http://en.wikipedia.org/wiki/Public_health'
p7
aS'http://www.publichealth.org/'
p8
a.